target datalayout = "e-m:e-p270:32:32-p271:32:32-p272:64:64-i64:64-i128:128-f80:128-n8:16:32:64-S128"
target triple = "x86_64-pc-linux-gnu"

%struct._packet_info = type { ptr, ptr, i32, i32, %struct.nstime_t, %struct.nstime_t, %struct.nstime_t, i8, ptr, ptr, ptr, ptr, %struct._address, %struct._address, %struct._address, %struct._address, %struct._address, %struct._address, i32, ptr, i8, [3 x i8], %struct.anon, i32, i32, i32, i32, ptr, i8, ptr, ptr, i16, i16, i32, i32, i16, i32, i32, ptr, ptr, ptr, i8, i8, i16, i16, i16, i32, i16, i16, ptr, ptr, ptr, ptr, ptr, i32, i32 }
%struct.nstime_t = type { i64, i32 }
%struct._address = type { i32, i32, ptr, ptr }
%struct.anon = type { i8, [3 x i8] }

@hf_kafka_consumer_group = internal global i32 0, align 4
@hf_kafka_consumer_group_instance = internal global i32 0, align 4
@hf_kafka_member_id = internal global i32 0, align 4
@hf_kafka_protocol_type = internal global i32 0, align 4
@hf_kafka_protocol_name = internal global i32 0, align 4
@hf_kafka_generation_id = internal global i32 0, align 4
@ett_kafka_group_assignments = internal global i32 0, align 4
@.str.704 = private unnamed_addr constant [23 x i8] c" (Group=%s, Member=%s)\00", align 1
@.str.711 = private unnamed_addr constant [18 x i8] c"Group Assignments\00", align 1

; Function Attrs: null_pointer_is_valid sspstrong uwtable
define internal i32 @dissect_kafka_sync_group_request(ptr noundef %0, ptr noundef %1, ptr noundef %2, i32 noundef %3, i16 noundef signext %4) #0 {
  %6 = alloca ptr, align 8
  %7 = alloca ptr, align 8
  %8 = alloca ptr, align 8
  %9 = alloca i32, align 4
  %10 = alloca i16, align 2
  %11 = alloca ptr, align 8
  %12 = alloca ptr, align 8
  %13 = alloca i32, align 4
  %14 = alloca i32, align 4
  %15 = alloca i32, align 4
  %16 = alloca i32, align 4
  store ptr %0, ptr %6, align 8
  store ptr %1, ptr %7, align 8
  store ptr %2, ptr %8, align 8
  store i32 %3, ptr %9, align 4
  store i16 %4, ptr %10, align 2
  call void @llvm.lifetime.start.p0(i64 8, ptr %11) #12
  call void @llvm.lifetime.start.p0(i64 8, ptr %12) #12
  call void @llvm.lifetime.start.p0(i64 4, ptr %13) #12
  call void @llvm.lifetime.start.p0(i64 4, ptr %14) #12
  call void @llvm.lifetime.start.p0(i64 4, ptr %15) #12
  call void @llvm.lifetime.start.p0(i64 4, ptr %16) #12
  %17 = load ptr, ptr %8, align 8
  %18 = load i32, ptr @hf_kafka_consumer_group, align 4
  %19 = load ptr, ptr %6, align 8
  %20 = load ptr, ptr %7, align 8
  %21 = load i32, ptr %9, align 4
  %22 = load i16, ptr %10, align 2
  %23 = sext i16 %22 to i32
  %24 = icmp sge i32 %23, 4
  %25 = zext i1 %24 to i32
  %26 = call i32 @dissect_kafka_string(ptr noundef %17, i32 noundef %18, ptr noundef %19, ptr noundef %20, i32 noundef %21, i32 noundef %25, ptr noundef %13, ptr noundef %14)
  store i32 %26, ptr %9, align 4
  %27 = load ptr, ptr %8, align 8
  %28 = load i32, ptr @hf_kafka_generation_id, align 4
  %29 = load ptr, ptr %6, align 8
  %30 = load i32, ptr %9, align 4
  %31 = call ptr @proto_tree_add_item(ptr noundef %27, i32 noundef %28, ptr noundef %29, i32 noundef %30, i32 noundef 4, i32 noundef 0)
  %32 = load i32, ptr %9, align 4
  %33 = add i32 %32, 4
  store i32 %33, ptr %9, align 4
  %34 = load ptr, ptr %8, align 8
  %35 = load i32, ptr @hf_kafka_member_id, align 4
  %36 = load ptr, ptr %6, align 8
  %37 = load ptr, ptr %7, align 8
  %38 = load i32, ptr %9, align 4
  %39 = load i16, ptr %10, align 2
  %40 = sext i16 %39 to i32
  %41 = icmp sge i32 %40, 4
  %42 = zext i1 %41 to i32
  %43 = call i32 @dissect_kafka_string(ptr noundef %34, i32 noundef %35, ptr noundef %36, ptr noundef %37, i32 noundef %38, i32 noundef %42, ptr noundef %15, ptr noundef %16)
  store i32 %43, ptr %9, align 4
  %44 = load i16, ptr %10, align 2
  %45 = sext i16 %44 to i32
  %46 = icmp sge i32 %45, 3
  br i1 %46, label %47, label %58

47:                                               ; preds = %5
  %48 = load ptr, ptr %8, align 8
  %49 = load i32, ptr @hf_kafka_consumer_group_instance, align 4
  %50 = load ptr, ptr %6, align 8
  %51 = load ptr, ptr %7, align 8
  %52 = load i32, ptr %9, align 4
  %53 = load i16, ptr %10, align 2
  %54 = sext i16 %53 to i32
  %55 = icmp sge i32 %54, 4
  %56 = zext i1 %55 to i32
  %57 = call i32 @dissect_kafka_string(ptr noundef %48, i32 noundef %49, ptr noundef %50, ptr noundef %51, i32 noundef %52, i32 noundef %56, ptr noundef null, ptr noundef null)
  store i32 %57, ptr %9, align 4
  br label %58

58:                                               ; preds = %47, %5
  %59 = load i16, ptr %10, align 2
  %60 = sext i16 %59 to i32
  %61 = icmp sge i32 %60, 5
  br i1 %61, label %62, label %69

62:                                               ; preds = %58
  %63 = load ptr, ptr %8, align 8
  %64 = load i32, ptr @hf_kafka_protocol_type, align 4
  %65 = load ptr, ptr %6, align 8
  %66 = load ptr, ptr %7, align 8
  %67 = load i32, ptr %9, align 4
  %68 = call i32 @dissect_kafka_string(ptr noundef %63, i32 noundef %64, ptr noundef %65, ptr noundef %66, i32 noundef %67, i32 noundef 1, ptr noundef null, ptr noundef null)
  store i32 %68, ptr %9, align 4
  br label %69

69:                                               ; preds = %62, %58
  %70 = load i16, ptr %10, align 2
  %71 = sext i16 %70 to i32
  %72 = icmp sge i32 %71, 5
  br i1 %72, label %73, label %80

73:                                               ; preds = %69
  %74 = load ptr, ptr %8, align 8
  %75 = load i32, ptr @hf_kafka_protocol_name, align 4
  %76 = load ptr, ptr %6, align 8
  %77 = load ptr, ptr %7, align 8
  %78 = load i32, ptr %9, align 4
  %79 = call i32 @dissect_kafka_string(ptr noundef %74, i32 noundef %75, ptr noundef %76, ptr noundef %77, i32 noundef %78, i32 noundef 1, ptr noundef null, ptr noundef null)
  store i32 %79, ptr %9, align 4
  br label %80

80:                                               ; preds = %73, %69
  %81 = load ptr, ptr %8, align 8
  %82 = load ptr, ptr %6, align 8
  %83 = load i32, ptr %9, align 4
  %84 = load i32, ptr @ett_kafka_group_assignments, align 4
  %85 = call ptr @proto_tree_add_subtree(ptr noundef %81, ptr noundef %82, i32 noundef %83, i32 noundef -1, i32 noundef %84, ptr noundef %11, ptr noundef @.str.711)
  store ptr %85, ptr %12, align 8
  %86 = load ptr, ptr %12, align 8
  %87 = load ptr, ptr %6, align 8
  %88 = load ptr, ptr %7, align 8
  %89 = load i32, ptr %9, align 4
  %90 = load i16, ptr %10, align 2
  %91 = sext i16 %90 to i32
  %92 = icmp sge i32 %91, 4
  %93 = zext i1 %92 to i32
  %94 = load i16, ptr %10, align 2
  %95 = call i32 @dissect_kafka_array(ptr noundef %86, ptr noundef %87, ptr noundef %88, i32 noundef %89, i32 noundef %93, i16 noundef signext %94, ptr noundef @dissect_kafka_sync_group_request_group_assignment, ptr noundef null)
  store i32 %95, ptr %9, align 4
  %96 = load i16, ptr %10, align 2
  %97 = sext i16 %96 to i32
  %98 = icmp sge i32 %97, 4
  br i1 %98, label %99, label %105

99:                                               ; preds = %80
  %100 = load ptr, ptr %6, align 8
  %101 = load ptr, ptr %7, align 8
  %102 = load ptr, ptr %8, align 8
  %103 = load i32, ptr %9, align 4
  %104 = call i32 @dissect_kafka_tagged_fields(ptr noundef %100, ptr noundef %101, ptr noundef %102, i32 noundef %103, i16 noundef signext 0)
  store i32 %104, ptr %9, align 4
  br label %105

105:                                              ; preds = %99, %80
  %106 = load ptr, ptr %11, align 8
  %107 = load ptr, ptr %6, align 8
  %108 = load i32, ptr %9, align 4
  call void @proto_item_set_end(ptr noundef %106, ptr noundef %107, i32 noundef %108)
  %109 = load ptr, ptr %7, align 8
  %110 = getelementptr inbounds nuw %struct._packet_info, ptr %109, i32 0, i32 1
  %111 = load ptr, ptr %110, align 8
  %112 = load ptr, ptr %7, align 8
  %113 = getelementptr inbounds nuw %struct._packet_info, ptr %112, i32 0, i32 51
  %114 = load ptr, ptr %113, align 8
  %115 = load ptr, ptr %6, align 8
  %116 = load i32, ptr %13, align 4
  %117 = load i32, ptr %14, align 4
  %118 = call ptr @tvb_get_string_enc(ptr noundef %114, ptr noundef %115, i32 noundef %116, i32 noundef %117, i32 noundef 2)
  %119 = load ptr, ptr %7, align 8
  %120 = getelementptr inbounds nuw %struct._packet_info, ptr %119, i32 0, i32 51
  %121 = load ptr, ptr %120, align 8
  %122 = load ptr, ptr %6, align 8
  %123 = load i32, ptr %15, align 4
  %124 = load i32, ptr %16, align 4
  %125 = call ptr @tvb_get_string_enc(ptr noundef %121, ptr noundef %122, i32 noundef %123, i32 noundef %124, i32 noundef 2)
  call void (ptr, i32, ptr, ...) @col_append_fstr(ptr noundef %111, i32 noundef 25, ptr noundef @.str.704, ptr noundef %118, ptr noundef %125)
  %126 = load i32, ptr %9, align 4
  call void @llvm.lifetime.end.p0(i64 4, ptr %16) #12
  call void @llvm.lifetime.end.p0(i64 4, ptr %15) #12
  call void @llvm.lifetime.end.p0(i64 4, ptr %14) #12
  call void @llvm.lifetime.end.p0(i64 4, ptr %13) #12
  call void @llvm.lifetime.end.p0(i64 8, ptr %12) #12
  call void @llvm.lifetime.end.p0(i64 8, ptr %11) #12
  ret i32 %126
}