; Function Attrs: null_pointer_is_valid sspstrong uwtable
define internal fastcc noundef i32 @dissect_kafka_sync_group_request(ptr noundef %0, ptr noundef %1, ptr noundef %2, i32 noundef %3, i16 noundef signext %4) unnamed_addr #0 {
  %6 = alloca ptr, align 8
  %7 = alloca i32, align 4
  %8 = alloca i32, align 4
  %9 = alloca i32, align 4
  %10 = alloca i32, align 4
  call void @llvm.lifetime.start.p0(i64 8, ptr nonnull %6) #9
  call void @llvm.lifetime.start.p0(i64 4, ptr nonnull %7) #9
  call void @llvm.lifetime.start.p0(i64 4, ptr nonnull %8) #9
  call void @llvm.lifetime.start.p0(i64 4, ptr nonnull %9) #9
  call void @llvm.lifetime.start.p0(i64 4, ptr nonnull %10) #9
  %11 = load i32, ptr @hf_kafka_consumer_group, align 4
  %12 = icmp sgt i16 %4, 3
  %13 = zext i1 %12 to i32
  %14 = call fastcc i32 @dissect_kafka_string(ptr noundef %2, i32 noundef %11, ptr noundef %0, ptr noundef %1, i32 noundef %3, i32 noundef %13, ptr noundef nonnull %7, ptr noundef nonnull %8)
  %15 = load i32, ptr @hf_kafka_generation_id, align 4
  %16 = call ptr @proto_tree_add_item(ptr noundef %2, i32 noundef %15, ptr noundef %0, i32 noundef %14, i32 noundef 4, i32 noundef 0)
  %17 = add i32 %14, 4
  %18 = load i32, ptr @hf_kafka_member_id, align 4
  %19 = call fastcc i32 @dissect_kafka_string(ptr noundef %2, i32 noundef %18, ptr noundef %0, ptr noundef %1, i32 noundef %17, i32 noundef %13, ptr noundef nonnull %9, ptr noundef nonnull %10)
  %20 = icmp sgt i16 %4, 2
  br i1 %20, label %21, label %.thread52

21:                                               ; preds = %5
  %22 = load i32, ptr @hf_kafka_consumer_group_instance, align 4
  %23 = call fastcc i32 @dissect_kafka_string(ptr noundef %2, i32 noundef %22, ptr noundef %0, ptr noundef %1, i32 noundef %19, i32 noundef %13, ptr noundef null, ptr noundef null)
  %24 = icmp samesign ugt i16 %4, 4
  br i1 %24, label %25, label %.thread52

25:                                               ; preds = %21
  %26 = load i32, ptr @hf_kafka_protocol_type, align 4
  %27 = call fastcc i32 @dissect_kafka_compact_string(ptr noundef %2, i32 noundef %26, ptr noundef %0, ptr noundef %1, i32 noundef %23, ptr noundef null, ptr noundef null)
  %28 = load i32, ptr @hf_kafka_protocol_name, align 4
  %29 = call fastcc i32 @dissect_kafka_compact_string(ptr noundef %2, i32 noundef %28, ptr noundef %0, ptr noundef %1, i32 noundef %27, ptr noundef null, ptr noundef null)
  br label %.thread52

.thread52:                                        ; preds = %5, %21, %25
  %.2 = phi i32 [ %29, %25 ], [ %23, %21 ], [ %19, %5 ]
  %30 = load i32, ptr @ett_kafka_group_assignments, align 4
  %31 = call ptr @proto_tree_add_subtree(ptr noundef %2, ptr noundef %0, i32 noundef %.2, i32 noundef -1, i32 noundef %30, ptr noundef nonnull %6, ptr noundef nonnull @.str.711)
  %32 = call fastcc i32 @dissect_kafka_array(ptr noundef %31, ptr noundef %0, ptr noundef %1, i32 noundef %.2, i32 noundef %13, i16 noundef signext %4, ptr noundef nonnull @dissect_kafka_sync_group_request_group_assignment, ptr noundef null)
  br i1 %12, label %33, label %35

33:                                               ; preds = %.thread52
  %34 = call fastcc i32 @dissect_kafka_tagged_fields(ptr noundef %0, ptr noundef %1, ptr noundef %2, i32 noundef %32)
  br label %35

35:                                               ; preds = %33, %.thread52
  %.3 = phi i32 [ %34, %33 ], [ %32, %.thread52 ]
  %36 = load ptr, ptr %6, align 8
  call void @proto_item_set_end(ptr noundef %36, ptr noundef %0, i32 noundef %.3)
  %37 = getelementptr inbounds nuw i8, ptr %1, i64 8
  %38 = load ptr, ptr %37, align 8
  %39 = getelementptr inbounds nuw i8, ptr %1, i64 408
  %40 = load ptr, ptr %39, align 8
  %41 = load i32, ptr %7, align 4
  %42 = load i32, ptr %8, align 4
  %43 = call ptr @tvb_get_string_enc(ptr noundef %40, ptr noundef %0, i32 noundef %41, i32 noundef %42, i32 noundef 2)
  %44 = load ptr, ptr %39, align 8
  %45 = load i32, ptr %9, align 4
  %46 = load i32, ptr %10, align 4
  %47 = call ptr @tvb_get_string_enc(ptr noundef %44, ptr noundef %0, i32 noundef %45, i32 noundef %46, i32 noundef 2)
  call void (ptr, i32, ptr, ...) @col_append_fstr(ptr noundef %38, i32 noundef 25, ptr noundef nonnull @.str.704, ptr noundef %43, ptr noundef %47)
  call void @llvm.lifetime.end.p0(i64 4, ptr nonnull %10) #9
  call void @llvm.lifetime.end.p0(i64 4, ptr nonnull %9) #9
  call void @llvm.lifetime.end.p0(i64 4, ptr nonnull %8) #9
  call void @llvm.lifetime.end.p0(i64 4, ptr nonnull %7) #9
  call void @llvm.lifetime.end.p0(i64 8, ptr nonnull %6) #9
  ret i32 %.3
}